target datalayout = "e-m:e-p270:32:32-p271:32:32-p272:64:64-i64:64-i128:128-f80:128-n8:16:32:64-S128"
target triple = "x86_64-pc-linux-gnu"

%"class.icu_77::Replaceable" = type { %"class.icu_77::UObject" }
%"class.icu_77::UObject" = type { ptr }
%"class.icu_77::UnicodeString" = type { %"class.icu_77::Replaceable", %"union.icu_77::UnicodeString::StackBufferOrFields" }
%"union.icu_77::UnicodeString::StackBufferOrFields" = type { %struct.anon.0, [32 x i8] }
%struct.anon.0 = type { i16, i32, i32, ptr }

; Function Attrs: mustprogress uwtable
define void @utrans_unregister_77(ptr noundef %0) #1 personality ptr @__gxx_personality_v0 {
  %2 = alloca ptr, align 8
  %3 = alloca %"class.icu_77::UnicodeString", align 8
  %4 = alloca ptr, align 8
  %5 = alloca i32, align 4
  store ptr %0, ptr %2, align 8, !tbaa !49
  call void @llvm.lifetime.start.p0(i64 64, ptr %3) #9
  %6 = load ptr, ptr %2, align 8, !tbaa !49
  call void @_ZN6icu_7713UnicodeStringC1EPKciNS0_10EInvariantE(ptr noundef nonnull align 8 dereferenceable(64) %3, ptr noundef %6, i32 noundef -1, i32 noundef 0)
  invoke void @_ZN6icu_7714Transliterator10unregisterERKNS_13UnicodeStringE(ptr noundef nonnull align 8 dereferenceable(64) %3)
          to label %7 unwind label %8

7:                                                ; preds = %1
  call void @_ZN6icu_7713UnicodeStringD1Ev(ptr noundef nonnull align 8 dereferenceable(64) %3) #9
  call void @llvm.lifetime.end.p0(i64 64, ptr %3) #9
  ret void

8:                                                ; preds = %1
  %9 = landingpad { ptr, i32 }
          cleanup
  %10 = extractvalue { ptr, i32 } %9, 0
  store ptr %10, ptr %4, align 8
  %11 = extractvalue { ptr, i32 } %9, 1
  store i32 %11, ptr %5, align 4
  call void @_ZN6icu_7713UnicodeStringD1Ev(ptr noundef nonnull align 8 dereferenceable(64) %3) #9
  call void @llvm.lifetime.end.p0(i64 64, ptr %3) #9
  br label %12

12:                                               ; preds = %8
  %13 = load ptr, ptr %4, align 8
  %14 = load i32, ptr %5, align 4
  %15 = insertvalue { ptr, i32 } poison, ptr %13, 0
  %16 = insertvalue { ptr, i32 } %15, i32 %14, 1
  resume { ptr, i32 } %16
}