; Function Attrs: mustprogress uwtable
define void @utrans_unregister_77(ptr noundef %0) local_unnamed_addr #4 personality ptr @__gxx_personality_v0 {
  %2 = alloca %"class.icu_77::UnicodeString", align 8
  call void @llvm.lifetime.start.p0(i64 64, ptr nonnull %2) #10
  call void @_ZN6icu_7713UnicodeStringC1EPKciNS0_10EInvariantE(ptr noundef nonnull align 8 dereferenceable(64) %2, ptr noundef %0, i32 noundef -1, i32 noundef 0)
  invoke void @_ZN6icu_7714Transliterator10unregisterERKNS_13UnicodeStringE(ptr noundef nonnull align 8 dereferenceable(64) %2)
          to label %3 unwind label %4

3:                                                ; preds = %1
  call void @_ZN6icu_7713UnicodeStringD1Ev(ptr noundef nonnull align 8 dereferenceable(64) %2) #10
  call void @llvm.lifetime.end.p0(i64 64, ptr nonnull %2) #10
  ret void

4:                                                ; preds = %1
  %5 = landingpad { ptr, i32 }
          cleanup
  call void @_ZN6icu_7713UnicodeStringD1Ev(ptr noundef nonnull align 8 dereferenceable(64) %2) #10
  call void @llvm.lifetime.end.p0(i64 64, ptr nonnull %2) #10
  resume { ptr, i32 } %5
}